; Function Attrs: nounwind uwtable
define noalias nonnull ptr @l_Lean_mkFreshId___at_Lean_Meta_Grind_Arith_Cutsat_mkCase___spec__2(i8 noundef zeroext %0, ptr noundef readnone captures(none) %1, ptr noundef readnone captures(none) %2, ptr noundef readnone captures(none) %3, ptr noundef readnone captures(none) %4, ptr noundef readnone captures(none) %5, ptr noundef readnone captures(none) %6, ptr noundef readnone captures(none) %7, ptr noundef readnone captures(none) %8) local_unnamed_addr #1 {
  tail call void @lean_inc_heartbeat() #6
  %10 = tail call noalias ptr @mi_malloc_small(i64 noundef 24) #6
  %11 = icmp eq ptr %10, null
  br i1 %11, label %12, label %lean_alloc_closure.exit

12:                                               ; preds = %9
  tail call void @lean_internal_panic_out_of_memory() #7
  unreachable

lean_alloc_closure.exit:                          ; preds = %9
  %13 = getelementptr inbounds nuw i8, ptr %10, i64 4
  store i32 1, ptr %10, align 4, !tbaa !4
  store i32 -184549352, ptr %13, align 4
  %14 = getelementptr inbounds nuw i8, ptr %10, i64 8
  store ptr @l_Lean_mkFreshId___at_Lean_Meta_Grind_Arith_Cutsat_mkCase___spec__2___rarg___boxed, ptr %14, align 8, !tbaa !10
  %15 = getelementptr inbounds nuw i8, ptr %10, i64 16
  store i16 2, ptr %15, align 8, !tbaa !12
  %16 = getelementptr inbounds nuw i8, ptr %10, i64 18
  store i16 0, ptr %16, align 2, !tbaa !12
  ret ptr %10
}